; ModuleID = '1604.c'
source_filename = "1604.c"
target datalayout = "e-m:e-p270:32:32-p271:32:32-p272:64:64-i64:64-f80:128-n8:16:32:64-S128"
target triple = "x86_64-pc-linux-gnu"

@.str = private unnamed_addr constant [4 x i8] c"%d\0A\00", align 1
@.str.1 = private unnamed_addr constant [4 x i8] c"%d \00", align 1
@.str.2 = private unnamed_addr constant [3 x i8] c"%d\00", align 1
@.str.3 = private unnamed_addr constant [4 x i8] c"%d,\00", align 1

; Function Attrs: noinline nounwind uwtable
define dso_local void @main() #0 {
  %1 = alloca [350 x i32], align 16
  %2 = alloca i32, align 4
  %3 = alloca i32, align 4
  %4 = alloca [350 x i32], align 16
  %5 = alloca i32, align 4
  %6 = alloca i32, align 4
  %7 = alloca i32, align 4
  %8 = alloca i32, align 4
  %9 = alloca double, align 8
  %10 = alloca double, align 8
  %11 = alloca float, align 4
  store i32 1, i32* %6, align 4
  store double 0.000000e+00, double* %10, align 8
  %12 = call i32 (i8*, ...) @__isoc99_scanf(i8* getelementptr inbounds ([4 x i8], [4 x i8]* @.str, i64 0, i64 0), i32* %2)
  store i32 0, i32* %3, align 4
  br label %13

13:                                               ; preds = %30, %0
  %14 = load i32, i32* %3, align 4
  %15 = load i32, i32* %2, align 4
  %16 = sub nsw i32 %15, 2
  %17 = icmp sle i32 %14, %16
  br i1 %17, label %18, label %33

18:                                               ; preds = %13
  %19 = load i32, i32* %3, align 4
  %20 = sext i32 %19 to i64
  %21 = getelementptr inbounds [350 x i32], [350 x i32]* %1, i64 0, i64 %20
  %22 = call i32 (i8*, ...) @__isoc99_scanf(i8* getelementptr inbounds ([4 x i8], [4 x i8]* @.str.1, i64 0, i64 0), i32* %21)
  %23 = load double, double* %10, align 8
  %24 = load i32, i32* %3, align 4
  %25 = sext i32 %24 to i64
  %26 = getelementptr inbounds [350 x i32], [350 x i32]* %1, i64 0, i64 %25
  %27 = load i32, i32* %26, align 4
  %28 = sitofp i32 %27 to double
  %29 = fadd double %23, %28
  store double %29, double* %10, align 8
  br label %30

30:                                               ; preds = %18
  %31 = load i32, i32* %3, align 4
  %32 = add nsw i32 %31, 1
  store i32 %32, i32* %3, align 4
  br label %13

33:                                               ; preds = %13
  %34 = load i32, i32* %2, align 4
  %35 = sub nsw i32 %34, 1
  %36 = sext i32 %35 to i64
  %37 = getelementptr inbounds [350 x i32], [350 x i32]* %1, i64 0, i64 %36
  %38 = call i32 (i8*, ...) @__isoc99_scanf(i8* getelementptr inbounds ([3 x i8], [3 x i8]* @.str.2, i64 0, i64 0), i32* %37)
  %39 = load double, double* %10, align 8
  %40 = load i32, i32* %2, align 4
  %41 = sub nsw i32 %40, 1
  %42 = sext i32 %41 to i64
  %43 = getelementptr inbounds [350 x i32], [350 x i32]* %1, i64 0, i64 %42
  %44 = load i32, i32* %43, align 4
  %45 = sitofp i32 %44 to double
  %46 = fadd double %39, %45
  store double %46, double* %10, align 8
  %47 = load double, double* %10, align 8
  %48 = load i32, i32* %2, align 4
  %49 = sitofp i32 %48 to double
  %50 = fdiv double %47, %49
  %51 = fptrunc double %50 to float
  store float %51, float* %11, align 4
  %52 = getelementptr inbounds [350 x i32], [350 x i32]* %1, i64 0, i64 0
  %53 = load i32, i32* %52, align 16
  %54 = sitofp i32 %53 to float
  %55 = load float, float* %11, align 4
  %56 = fsub float %54, %55
  %57 = fpext float %56 to double
  %58 = call double @llvm.fabs.f64(double %57)
  store double %58, double* %9, align 8
  %59 = getelementptr inbounds [350 x i32], [350 x i32]* %4, i64 0, i64 0
  store i32 0, i32* %59, align 16
  store i32 0, i32* %5, align 4
  br label %60

60:                                               ; preds = %90, %33
  %61 = load i32, i32* %5, align 4
  %62 = load i32, i32* %2, align 4
  %63 = sub nsw i32 %62, 1
  %64 = icmp sle i32 %61, %63
  br i1 %64, label %65, label %93

65:                                               ; preds = %60
  %66 = load i32, i32* %5, align 4
  %67 = sext i32 %66 to i64
  %68 = getelementptr inbounds [350 x i32], [350 x i32]* %1, i64 0, i64 %67
  %69 = load i32, i32* %68, align 4
  %70 = sitofp i32 %69 to float
  %71 = load float, float* %11, align 4
  %72 = fsub float %70, %71
  %73 = fpext float %72 to double
  %74 = call double @llvm.fabs.f64(double %73)
  %75 = load double, double* %9, align 8
  %76 = fcmp ogt double %74, %75
  br i1 %76, label %77, label %89

77:                                               ; preds = %65
  %78 = load i32, i32* %5, align 4
  %79 = sext i32 %78 to i64
  %80 = getelementptr inbounds [350 x i32], [350 x i32]* %1, i64 0, i64 %79
  %81 = load i32, i32* %80, align 4
  %82 = sitofp i32 %81 to float
  %83 = load float, float* %11, align 4
  %84 = fsub float %82, %83
  %85 = fpext float %84 to double
  %86 = call double @llvm.fabs.f64(double %85)
  store double %86, double* %9, align 8
  %87 = load i32, i32* %5, align 4
  %88 = getelementptr inbounds [350 x i32], [350 x i32]* %4, i64 0, i64 0
  store i32 %87, i32* %88, align 16
  br label %89

89:                                               ; preds = %77, %65
  br label %90

90:                                               ; preds = %89
  %91 = load i32, i32* %5, align 4
  %92 = add nsw i32 %91, 1
  store i32 %92, i32* %5, align 4
  br label %60

93:                                               ; preds = %60
  store i32 0, i32* %8, align 4
  br label %94

94:                                               ; preds = %124, %93
  %95 = load i32, i32* %8, align 4
  %96 = load i32, i32* %2, align 4
  %97 = sub nsw i32 %96, 1
  %98 = icmp sle i32 %95, %97
  br i1 %98, label %99, label %127

99:                                               ; preds = %94
  %100 = load double, double* %9, align 8
  %101 = load i32, i32* %8, align 4
  %102 = sext i32 %101 to i64
  %103 = getelementptr inbounds [350 x i32], [350 x i32]* %1, i64 0, i64 %102
  %104 = load i32, i32* %103, align 4
  %105 = sitofp i32 %104 to float
  %106 = load float, float* %11, align 4
  %107 = fsub float %105, %106
  %108 = fpext float %107 to double
  %109 = call double @llvm.fabs.f64(double %108)
  %110 = fcmp oeq double %100, %109
  br i1 %110, label %111, label %123

111:                                              ; preds = %99
  %112 = load i32, i32* %8, align 4
  %113 = getelementptr inbounds [350 x i32], [350 x i32]* %4, i64 0, i64 0
  %114 = load i32, i32* %113, align 16
  %115 = icmp ne i32 %112, %114
  br i1 %115, label %116, label %123

116:                                              ; preds = %111
  %117 = load i32, i32* %8, align 4
  %118 = load i32, i32* %6, align 4
  %119 = sext i32 %118 to i64
  %120 = getelementptr inbounds [350 x i32], [350 x i32]* %4, i64 0, i64 %119
  store i32 %117, i32* %120, align 4
  %121 = load i32, i32* %6, align 4
  %122 = add nsw i32 %121, 1
  store i32 %122, i32* %6, align 4
  br label %123

123:                                              ; preds = %116, %111, %99
  br label %124

124:                                              ; preds = %123
  %125 = load i32, i32* %8, align 4
  %126 = add nsw i32 %125, 1
  store i32 %126, i32* %8, align 4
  br label %94

127:                                              ; preds = %94
  store i32 0, i32* %7, align 4
  br label %128

128:                                              ; preds = %142, %127
  %129 = load i32, i32* %7, align 4
  %130 = load i32, i32* %6, align 4
  %131 = sub nsw i32 %130, 1
  %132 = icmp slt i32 %129, %131
  br i1 %132, label %133, label %145

133:                                              ; preds = %128
  %134 = load i32, i32* %7, align 4
  %135 = sext i32 %134 to i64
  %136 = getelementptr inbounds [350 x i32], [350 x i32]* %4, i64 0, i64 %135
  %137 = load i32, i32* %136, align 4
  %138 = sext i32 %137 to i64
  %139 = getelementptr inbounds [350 x i32], [350 x i32]* %1, i64 0, i64 %138
  %140 = load i32, i32* %139, align 4
  %141 = call i32 (i8*, ...) @printf(i8* getelementptr inbounds ([4 x i8], [4 x i8]* @.str.3, i64 0, i64 0), i32 %140)
  br label %142

142:                                              ; preds = %133
  %143 = load i32, i32* %7, align 4
  %144 = add nsw i32 %143, 1
  store i32 %144, i32* %7, align 4
  br label %128

145:                                              ; preds = %128
  %146 = load i32, i32* %6, align 4
  %147 = sub nsw i32 %146, 1
  %148 = sext i32 %147 to i64
  %149 = getelementptr inbounds [350 x i32], [350 x i32]* %4, i64 0, i64 %148
  %150 = load i32, i32* %149, align 4
  %151 = sext i32 %150 to i64
  %152 = getelementptr inbounds [350 x i32], [350 x i32]* %1, i64 0, i64 %151
  %153 = load i32, i32* %152, align 4
  %154 = call i32 (i8*, ...) @printf(i8* getelementptr inbounds ([3 x i8], [3 x i8]* @.str.2, i64 0, i64 0), i32 %153)
  ret void
}

declare dso_local i32 @__isoc99_scanf(i8*, ...) #1

; Function Attrs: nounwind readnone speculatable willreturn
declare double @llvm.fabs.f64(double) #2

declare dso_local i32 @printf(i8*, ...) #1


!llvm.module.flags = !{!0}
!llvm.ident = !{!1}

!0 = !{i32 1, !"wchar_size", i32 4}
!1 = !{!"clang version 10.0.0-4ubuntu1 "}
